; Function Attrs: mustprogress uwtable
define hidden void @_ZN2cv7details5FastXC1ERKNS1_10ParametersE(ptr noundef nonnull align 8 dereferenceable(32) %0, ptr noundef nonnull readonly align 4 captures(none) dereferenceable(22) %1) unnamed_addr #5 align 2 personality ptr @__gxx_personality_v0 {
  tail call void @_ZN2cv9AlgorithmC2Ev(ptr noundef nonnull align 8 dereferenceable(8) %0)
  store ptr getelementptr inbounds nuw inrange(-80, 152) (i8, ptr @_ZTVN2cv7details5FastXE, i64 80), ptr %0, align 8, !tbaa !3
  %3 = getelementptr inbounds nuw i8, ptr %0, i64 8
  store float 4.000000e+01, ptr %3, align 8, !tbaa !6
  %4 = getelementptr inbounds nuw i8, ptr %0, i64 12
  store float 0x3FE921FB60000000, ptr %4, align 4, !tbaa !12
  %5 = getelementptr inbounds nuw i8, ptr %0, i64 16
  store i32 2, ptr %5, align 8, !tbaa !13
  %6 = getelementptr inbounds nuw i8, ptr %0, i64 20
  store i32 2, ptr %6, align 4, !tbaa !14
  %7 = getelementptr inbounds nuw i8, ptr %0, i64 24
  store i32 5, ptr %7, align 8, !tbaa !15
  %8 = getelementptr inbounds nuw i8, ptr %0, i64 29
  store i8 1, ptr %8, align 1, !tbaa !16
  %9 = getelementptr inbounds nuw i8, ptr %0, i64 28
  store i8 1, ptr %9, align 4, !tbaa !17
  %10 = getelementptr inbounds nuw i8, ptr %1, i64 12
  %11 = load i32, ptr %10, align 4, !tbaa !14
  %12 = icmp slt i32 %11, 0
  %13 = getelementptr inbounds nuw i8, ptr %1, i64 16
  %14 = load i32, ptr %13, align 4
  %.not.i = icmp sgt i32 %11, %14
  %or.cond.i = select i1 %12, i1 true, i1 %.not.i
  br i1 %or.cond.i, label %15, label %16

15:                                               ; preds = %2
  invoke void @_ZN2cv6detail17check_failed_autoEiRKNS0_12CheckContextE(i32 noundef %11, ptr noundef nonnull align 8 dereferenceable(48) @_ZZN2cv7details5FastX11reconfigureERKNS1_10ParametersEE15__cv_check__360) #36
          to label %.noexc unwind label %17

.noexc:                                           ; preds = %15
  unreachable

16:                                               ; preds = %2
  tail call void @llvm.memcpy.p0.p0.i64(ptr noundef nonnull align 8 dereferenceable(22) %3, ptr noundef nonnull readonly align 4 dereferenceable(22) %1, i64 22, i1 false), !tbaa.struct !18
  ret void

17:                                               ; preds = %15
  %18 = landingpad { ptr, i32 }
          cleanup
  tail call void @_ZN2cv9Feature2DD2Ev(ptr noundef nonnull align 8 dereferenceable(8) %0, ptr noundef nonnull getelementptr inbounds nuw (i8, ptr @_ZTTN2cv7details5FastXE, i64 8)) #37
  tail call void @_ZN2cv9AlgorithmD2Ev(ptr noundef nonnull align 8 dereferenceable(8) %0) #37
  resume { ptr, i32 } %18
}